; Function Attrs: mustprogress uwtable
define noundef zeroext i1 @_ZNK8QuantLib6Canada7TsxImpl13isBusinessDayERKNS_4DateE(ptr noundef nonnull align 8 dereferenceable(104) %this, ptr noundef nonnull align 8 dereferenceable(8) %date) unnamed_addr #0 align 2 {
entry:
  %0 = load i64, ptr %date, align 8, !tbaa !30
  %rem.i = srem i64 %0, 7
  %conv.i = trunc nsw i64 %rem.i to i32
  %cmp.i = icmp eq i64 %rem.i, 0
  %cond.i = select i1 %cmp.i, i32 7, i32 %conv.i
  %call.i.i = tail call noundef i32 @_ZNK8QuantLib4Date4yearEv(ptr noundef nonnull align 8 dereferenceable(8) %date)
  %call2.i.i = tail call noundef i64 @_ZN8QuantLib4Date10yearOffsetEi(i32 noundef %call.i.i)
  %sub.i.i = sub nsw i64 %0, %call2.i.i
  %conv.i.i = trunc i64 %sub.i.i to i32
  %call2.i = tail call noundef i32 @_ZNK8QuantLib4Date5monthEv(ptr noundef nonnull align 8 dereferenceable(8) %date)
  %call3.i = tail call noundef i32 @_ZNK8QuantLib4Date4yearEv(ptr noundef nonnull align 8 dereferenceable(8) %date)
  %call4.i = tail call noundef zeroext i1 @_ZN8QuantLib4Date6isLeapEi(i32 noundef %call3.i)
  %call5.i = tail call noundef i32 @_ZN8QuantLib4Date11monthOffsetENS_5MonthEb(i32 noundef %call2.i, i1 noundef zeroext %call4.i)
  %sub.i = sub nsw i32 %conv.i.i, %call5.i
  %1 = load i64, ptr %date, align 8, !tbaa !30
  %call.i = tail call noundef i32 @_ZNK8QuantLib4Date4yearEv(ptr noundef nonnull align 8 dereferenceable(8) %date)
  %call2.i92 = tail call noundef i64 @_ZN8QuantLib4Date10yearOffsetEi(i32 noundef %call.i)
  %sub.i93 = sub nsw i64 %1, %call2.i92
  %conv.i94 = trunc i64 %sub.i93 to i32
  %call4 = tail call noundef i32 @_ZNK8QuantLib4Date5monthEv(ptr noundef nonnull align 8 dereferenceable(8) %date)
  %call5 = tail call noundef i32 @_ZNK8QuantLib4Date4yearEv(ptr noundef nonnull align 8 dereferenceable(8) %date)
  %call6 = tail call noundef i32 @_ZN8QuantLib8Calendar11WesternImpl12easterMondayEi(i32 noundef %call5)
  %call7 = tail call noundef zeroext i1 @_ZNK8QuantLib8Calendar11WesternImpl9isWeekendENS_7WeekdayE(ptr noundef nonnull align 8 dereferenceable(104) %this, i32 noundef %cond.i)
  br i1 %call7, label %cleanup, label %lor.lhs.false

lor.lhs.false:                                    ; preds = %entry
  %cmp = icmp eq i32 %sub.i, 1
  br i1 %cmp, label %land.lhs.true13, label %lor.lhs.false8

lor.lhs.false8:                                   ; preds = %lor.lhs.false
  %2 = and i32 %sub.i, -2
  %or.cond = icmp eq i32 %2, 2
  %cmp12 = icmp eq i32 %cond.i, 2
  %or.cond1 = and i1 %cmp12, %or.cond
  %cmp14 = icmp eq i32 %call4, 1
  %or.cond2 = and i1 %or.cond1, %cmp14
  br i1 %or.cond2, label %cleanup, label %lor.lhs.false15

land.lhs.true13:                                  ; preds = %lor.lhs.false
  %cmp14.old = icmp eq i32 %call4, 1
  br i1 %cmp14.old, label %cleanup, label %lor.lhs.false15

lor.lhs.false15:                                  ; preds = %lor.lhs.false8, %land.lhs.true13
  %3 = add i32 %sub.i, -15
  %or.cond4 = icmp ult i32 %3, 7
  %cmp20 = icmp eq i32 %cond.i, 2
  %cmp22 = icmp eq i32 %call4, 2
  %4 = and i1 %or.cond4, %cmp22
  %cmp24 = icmp sgt i32 %call5, 2007
  %5 = and i1 %4, %cmp24
  %or.cond10 = and i1 %cmp20, %5
  %sub = add nsw i32 %call6, -3
  %cmp26 = icmp eq i32 %sub, %conv.i94
  %or.cond90 = select i1 %or.cond10, i1 true, i1 %cmp26
  br i1 %or.cond90, label %cleanup, label %lor.lhs.false27

lor.lhs.false27:                                  ; preds = %lor.lhs.false15
  %6 = add i32 %sub.i, -18
  %or.cond12 = icmp ult i32 %6, 7
  %cmp34 = icmp eq i32 %call4, 5
  %7 = and i1 %or.cond12, %cmp34
  %or.cond16 = and i1 %cmp20, %7
  br i1 %or.cond16, label %cleanup, label %lor.lhs.false35

lor.lhs.false35:                                  ; preds = %lor.lhs.false27
  br i1 %cmp, label %land.lhs.true43, label %lor.lhs.false37

lor.lhs.false37:                                  ; preds = %lor.lhs.false35
  %8 = and i32 %sub.i, -2
  %or.cond18 = icmp eq i32 %8, 2
  %cmp44 = icmp eq i32 %call4, 7
  %9 = and i1 %or.cond18, %cmp44
  %or.cond22 = and i1 %cmp20, %9
  br i1 %or.cond22, label %cleanup, label %lor.lhs.false45

land.lhs.true43:                                  ; preds = %lor.lhs.false35
  %cmp44.old = icmp eq i32 %call4, 7
  br i1 %cmp44.old, label %cleanup, label %lor.lhs.false45

lor.lhs.false45:                                  ; preds = %lor.lhs.false37, %land.lhs.true43
  %cmp46 = icmp slt i32 %sub.i, 8
  %10 = and i32 %call4, -2
  %or.cond3095 = icmp eq i32 %10, 8
  %11 = and i1 %cmp46, %or.cond3095
  %or.cond91 = and i1 %cmp20, %11
  br i1 %or.cond91, label %cleanup, label %lor.lhs.false57

lor.lhs.false57:                                  ; preds = %lor.lhs.false45
  %12 = add i32 %sub.i, -8
  %or.cond32 = icmp ult i32 %12, 7
  %cmp64 = icmp eq i32 %call4, 10
  %13 = and i1 %or.cond32, %cmp64
  %or.cond36 = and i1 %cmp20, %13
  br i1 %or.cond36, label %cleanup, label %lor.lhs.false65

lor.lhs.false65:                                  ; preds = %lor.lhs.false57
  switch i32 %sub.i, label %if.end [
    i32 25, label %land.lhs.true73
    i32 27, label %land.lhs.true69
    i32 26, label %land.lhs.true83
    i32 28, label %land.lhs.true79
  ]

land.lhs.true69:                                  ; preds = %lor.lhs.false65
  %14 = and i32 %cond.i, -2
  %or.cond38 = icmp eq i32 %14, 2
  %cmp74 = icmp eq i32 %call4, 12
  %or.cond40 = and i1 %or.cond38, %cmp74
  br i1 %or.cond40, label %cleanup, label %if.end

land.lhs.true73:                                  ; preds = %lor.lhs.false65
  %cmp74.old = icmp eq i32 %call4, 12
  br i1 %cmp74.old, label %cleanup, label %if.end

land.lhs.true79:                                  ; preds = %lor.lhs.false65
  %15 = and i32 %cond.i, -2
  %or.cond42 = icmp eq i32 %15, 2
  %cmp84 = icmp eq i32 %call4, 12
  %or.cond44 = and i1 %or.cond42, %cmp84
  br i1 %or.cond44, label %cleanup, label %if.end

land.lhs.true83:                                  ; preds = %lor.lhs.false65
  %cmp84.old = icmp eq i32 %call4, 12
  br i1 %cmp84.old, label %cleanup, label %if.end

if.end:                                           ; preds = %land.lhs.true73, %land.lhs.true69, %lor.lhs.false65, %land.lhs.true79, %land.lhs.true83
  br label %cleanup

cleanup:                                          ; preds = %entry, %land.lhs.true13, %land.lhs.true43, %land.lhs.true73, %land.lhs.true83, %lor.lhs.false8, %lor.lhs.false15, %lor.lhs.false27, %lor.lhs.false37, %lor.lhs.false45, %lor.lhs.false57, %land.lhs.true69, %land.lhs.true79, %if.end
  %retval.0 = phi i1 [ true, %if.end ], [ false, %land.lhs.true79 ], [ false, %land.lhs.true69 ], [ false, %lor.lhs.false57 ], [ false, %lor.lhs.false45 ], [ false, %lor.lhs.false37 ], [ false, %lor.lhs.false27 ], [ false, %lor.lhs.false15 ], [ false, %lor.lhs.false8 ], [ false, %land.lhs.true83 ], [ false, %land.lhs.true73 ], [ false, %land.lhs.true43 ], [ false, %land.lhs.true13 ], [ false, %entry ]
  ret i1 %retval.0
}